; Function Attrs: mustprogress uwtable
define dso_local noundef float @_ZN37btSequentialImpulseConstraintSolverMt39resolveAllContactConstraintsInterleavedEv(ptr noundef nonnull align 8 dereferenceable(920) %0) unnamed_addr #0 align 2 personality ptr @__gxx_personality_v0 {
  %2 = alloca %class.CProfileSample, align 1
  %3 = alloca %struct.InterleavedContactSolverLoop, align 8
  call void @llvm.lifetime.start.p0(i64 1, ptr nonnull %2) #16
  call void @_ZN14CProfileSampleC1EPKc(ptr noundef nonnull align 1 dereferenceable(1) %2, ptr noundef nonnull @.str.18)
  %4 = getelementptr inbounds nuw i8, ptr %0, i64 408
  call void @llvm.lifetime.start.p0(i64 24, ptr nonnull %3) #16
  store ptr getelementptr inbounds nuw inrange(-16, 24) (i8, ptr @_ZTV28InterleavedContactSolverLoop, i64 16), ptr %3, align 8, !tbaa !4
  %5 = getelementptr inbounds nuw i8, ptr %3, i64 8
  store ptr %0, ptr %5, align 8, !tbaa !263
  %6 = getelementptr inbounds nuw i8, ptr %3, i64 16
  store ptr %4, ptr %6, align 8, !tbaa !265
  %7 = getelementptr inbounds nuw i8, ptr %0, i64 476
  %8 = load i32, ptr %7, align 4, !tbaa !23
  %9 = icmp sgt i32 %8, 0
  br i1 %9, label %.lr.ph, label %._crit_edge

.lr.ph:                                           ; preds = %1
  %10 = getelementptr inbounds nuw i8, ptr %0, i64 552
  %11 = getelementptr inbounds nuw i8, ptr %0, i64 488
  br label %12

._crit_edge:                                      ; preds = %23, %1
  %.0.lcssa = phi float [ 0.000000e+00, %1 ], [ %24, %23 ]
  call void @llvm.lifetime.end.p0(i64 24, ptr nonnull %3) #16
  call void @_ZN14CProfileSampleD1Ev(ptr noundef nonnull align 1 dereferenceable(1) %2) #16
  call void @llvm.lifetime.end.p0(i64 1, ptr nonnull %2) #16
  ret float %.0.lcssa

12:                                               ; preds = %.lr.ph, %23
  %indvars.iv = phi i64 [ 0, %.lr.ph ], [ %indvars.iv.next, %23 ]
  %.018 = phi float [ 0.000000e+00, %.lr.ph ], [ %24, %23 ]
  %13 = load ptr, ptr %10, align 8, !tbaa !15
  %14 = getelementptr inbounds nuw i32, ptr %13, i64 %indvars.iv
  %15 = load i32, ptr %14, align 4, !tbaa !67
  %16 = load ptr, ptr %11, align 8, !tbaa !22
  %17 = sext i32 %15 to i64
  %18 = getelementptr inbounds %"struct.btBatchedConstraints::Range", ptr %16, i64 %17
  %19 = load i32, ptr %18, align 4, !tbaa !103
  %20 = getelementptr inbounds nuw i8, ptr %18, i64 4
  %21 = load i32, ptr %20, align 4, !tbaa !105
  %22 = invoke noundef float @_Z13btParallelSumiiiRK18btIParallelSumBody(i32 noundef %19, i32 noundef %21, i32 noundef 1, ptr noundef nonnull align 8 dereferenceable(8) %3)
          to label %23 unwind label %28

23:                                               ; preds = %12
  %24 = fadd float %.018, %22
  %indvars.iv.next = add nuw nsw i64 %indvars.iv, 1
  %25 = load i32, ptr %7, align 4, !tbaa !23
  %26 = sext i32 %25 to i64
  %27 = icmp slt i64 %indvars.iv.next, %26
  br i1 %27, label %12, label %._crit_edge, !llvm.loop !266

28:                                               ; preds = %12
  %29 = landingpad { ptr, i32 }
          cleanup
  call void @llvm.lifetime.end.p0(i64 24, ptr nonnull %3) #16
  call void @_ZN14CProfileSampleD1Ev(ptr noundef nonnull align 1 dereferenceable(1) %2) #16
  call void @llvm.lifetime.end.p0(i64 1, ptr nonnull %2) #16
  resume { ptr, i32 } %29
}